target datalayout = "e-m:e-p270:32:32-p271:32:32-p272:64:64-i64:64-i128:128-f80:128-n8:16:32:64-S128"
target triple = "x86_64-pc-linux-gnu"

%struct.ScratchBuf = type { [65536 x i8], i32 }
%struct.HTable = type { i32, ptr }
%struct.Path_ = type { %union.SourceSpan, ptr, i32 }
%union.SourceSpan = type { i64 }
%struct.CompilationUnit_ = type { ptr, ptr, ptr, ptr, ptr, ptr, ptr, ptr, ptr, ptr, i32, ptr, i8, i8, i8, i8, ptr, ptr, ptr, ptr, ptr, ptr, ptr, ptr, ptr, ptr, ptr, ptr, %struct.HTable, i32, ptr, ptr, %struct.anon.85 }
%struct.anon.85 = type { ptr, ptr }
%struct.File = type { i16, ptr, i64, ptr, ptr, ptr }
%struct.ParseContext_ = type { %struct.TokenData, i32, %union.SourceSpan, %union.SourceSpan, ptr, %struct.Lexer }
%struct.TokenData = type { ptr, i64, %union.anon.87 }
%union.anon.87 = type { %struct.anon.90 }
%struct.anon.90 = type { %struct.Int128_, i8 }
%struct.Int128_ = type { i64, i64 }
%struct.Lexer = type { ptr, ptr, ptr, ptr, i32, i32, ptr, ptr, ptr, %struct.TokenData, %union.SourceSpan, i32, i32 }
%struct.anon = type { i16, i8, i8, i32 }

@.str.1 = private unnamed_addr constant [100 x i8] c"The filename '%s' could not be converted to a valid module name, try using an explicit module name.\00", align 1
@scratch_buffer = external global %struct.ScratchBuf, align 4
@.str.2 = private unnamed_addr constant [123 x i8] c"Generating a filename from the file '%s' resulted in a name that is a reserved keyword, try using an explicit module name.\00", align 1

; Function Attrs: nounwind uwtable
define internal zeroext i1 @char_is_upper(i8 noundef signext %0) #0 {
  %2 = alloca i8, align 1
  store i8 %0, ptr %2, align 1
  %3 = load i8, ptr %2, align 1
  %4 = sext i8 %3 to i32
  %5 = icmp sge i32 %4, 65
  br i1 %5, label %6, label %10

6:                                                ; preds = %1
  %7 = load i8, ptr %2, align 1
  %8 = sext i8 %7 to i32
  %9 = icmp sle i32 %8, 90
  br label %10

10:                                               ; preds = %6, %1
  %11 = phi i1 [ false, %1 ], [ %9, %6 ]
  ret i1 %11
}

; Function Attrs: nounwind uwtable
define internal zeroext i1 @char_is_digit(i8 noundef signext %0) #0 {
  %2 = alloca i8, align 1
  store i8 %0, ptr %2, align 1
  %3 = load i8, ptr %2, align 1
  %4 = sext i8 %3 to i32
  %5 = icmp sge i32 %4, 48
  br i1 %5, label %6, label %10

6:                                                ; preds = %1
  %7 = load i8, ptr %2, align 1
  %8 = sext i8 %7 to i32
  %9 = icmp sle i32 %8, 57
  br label %10

10:                                               ; preds = %6, %1
  %11 = phi i1 [ false, %1 ], [ %9, %6 ]
  ret i1 %11
}

; Function Attrs: nounwind uwtable
define internal zeroext i1 @char_is_letter(i8 noundef signext %0) #0 {
  %2 = alloca i1, align 1
  %3 = alloca i8, align 1
  store i8 %0, ptr %3, align 1
  %4 = load i8, ptr %3, align 1
  %5 = sext i8 %4 to i32
  switch i32 %5, label %7 [
    i32 97, label %6
    i32 98, label %6
    i32 99, label %6
    i32 100, label %6
    i32 101, label %6
    i32 102, label %6
    i32 103, label %6
    i32 104, label %6
    i32 105, label %6
    i32 106, label %6
    i32 107, label %6
    i32 108, label %6
    i32 109, label %6
    i32 110, label %6
    i32 111, label %6
    i32 112, label %6
    i32 113, label %6
    i32 114, label %6
    i32 115, label %6
    i32 116, label %6
    i32 117, label %6
    i32 118, label %6
    i32 119, label %6
    i32 120, label %6
    i32 121, label %6
    i32 122, label %6
    i32 65, label %6
    i32 66, label %6
    i32 67, label %6
    i32 68, label %6
    i32 69, label %6
    i32 70, label %6
    i32 71, label %6
    i32 72, label %6
    i32 73, label %6
    i32 74, label %6
    i32 75, label %6
    i32 76, label %6
    i32 77, label %6
    i32 78, label %6
    i32 79, label %6
    i32 80, label %6
    i32 81, label %6
    i32 82, label %6
    i32 83, label %6
    i32 84, label %6
    i32 85, label %6
    i32 86, label %6
    i32 87, label %6
    i32 88, label %6
    i32 89, label %6
    i32 90, label %6
  ]

6:                                                ; preds = %1, %1, %1, %1, %1, %1, %1, %1, %1, %1, %1, %1, %1, %1, %1, %1, %1, %1, %1, %1, %1, %1, %1, %1, %1, %1, %1, %1, %1, %1, %1, %1, %1, %1, %1, %1, %1, %1, %1, %1, %1, %1, %1, %1, %1, %1, %1, %1, %1, %1, %1, %1
  store i1 true, ptr %2, align 1
  br label %8

7:                                                ; preds = %1
  store i1 false, ptr %2, align 1
  br label %8

8:                                                ; preds = %7, %6
  %9 = load i1, ptr %2, align 1
  ret i1 %9
}

; Function Attrs: nounwind uwtable
define internal i32 @fnv1a(ptr noundef %0, i32 noundef %1) #0 {
  %3 = alloca ptr, align 8
  %4 = alloca i32, align 4
  %5 = alloca i32, align 4
  %6 = alloca i32, align 4
  store ptr %0, ptr %3, align 8
  store i32 %1, ptr %4, align 4
  store i32 -2128831035, ptr %5, align 4
  store i32 0, ptr %6, align 4
  br label %7

7:                                                ; preds = %21, %2
  %8 = load i32, ptr %6, align 4
  %9 = load i32, ptr %4, align 4
  %10 = icmp ult i32 %8, %9
  br i1 %10, label %11, label %24

11:                                               ; preds = %7
  %12 = load ptr, ptr %3, align 8
  %13 = load i32, ptr %6, align 4
  %14 = zext i32 %13 to i64
  %15 = getelementptr inbounds i8, ptr %12, i64 %14
  %16 = load i8, ptr %15, align 1
  %17 = sext i8 %16 to i32
  %18 = load i32, ptr %5, align 4
  %19 = xor i32 %17, %18
  %20 = mul i32 %19, 16777619
  store i32 %20, ptr %5, align 4
  br label %21

21:                                               ; preds = %11
  %22 = load i32, ptr %6, align 4
  %23 = add i32 %22, 1
  store i32 %23, ptr %6, align 4
  br label %7, !llvm.loop !10

24:                                               ; preds = %7
  %25 = load i32, ptr %5, align 4
  ret i32 %25
}

; Function Attrs: nounwind uwtable
define internal zeroext i1 @filename_to_module_in_buffer(ptr noundef %0) #0 {
  %2 = alloca i1, align 1
  %3 = alloca ptr, align 8
  %4 = alloca i32, align 4
  %5 = alloca i32, align 4
  %6 = alloca i32, align 4
  %7 = alloca i32, align 4
  %8 = alloca i32, align 4
  %9 = alloca i32, align 4
  %10 = alloca i8, align 1
  store ptr %0, ptr %3, align 8
  %11 = load ptr, ptr %3, align 8
  %12 = call i64 @strlen(ptr noundef %11) #5
  %13 = trunc i64 %12 to i32
  store i32 %13, ptr %4, align 4
  store i32 0, ptr %5, align 4
  store i32 -1, ptr %6, align 4
  store i32 0, ptr %7, align 4
  br label %14

14:                                               ; preds = %39, %1
  %15 = load i32, ptr %7, align 4
  %16 = load i32, ptr %4, align 4
  %17 = icmp slt i32 %15, %16
  br i1 %17, label %18, label %42

18:                                               ; preds = %14
  %19 = load ptr, ptr %3, align 8
  %20 = load i32, ptr %7, align 4
  %21 = sext i32 %20 to i64
  %22 = getelementptr inbounds i8, ptr %19, i64 %21
  %23 = load i8, ptr %22, align 1
  %24 = sext i8 %23 to i32
  %25 = icmp eq i32 %24, 47
  br i1 %25, label %26, label %28

26:                                               ; preds = %18
  %27 = load i32, ptr %7, align 4
  store i32 %27, ptr %5, align 4
  br label %28

28:                                               ; preds = %26, %18
  %29 = load ptr, ptr %3, align 8
  %30 = load i32, ptr %7, align 4
  %31 = sext i32 %30 to i64
  %32 = getelementptr inbounds i8, ptr %29, i64 %31
  %33 = load i8, ptr %32, align 1
  %34 = sext i8 %33 to i32
  %35 = icmp eq i32 %34, 46
  br i1 %35, label %36, label %38

36:                                               ; preds = %28
  %37 = load i32, ptr %7, align 4
  store i32 %37, ptr %6, align 4
  br label %38

38:                                               ; preds = %36, %28
  br label %39

39:                                               ; preds = %38
  %40 = load i32, ptr %7, align 4
  %41 = add nsw i32 %40, 1
  store i32 %41, ptr %7, align 4
  br label %14, !llvm.loop !7

42:                                               ; preds = %14
  %43 = load i32, ptr %6, align 4
  %44 = load i32, ptr %5, align 4
  %45 = sub nsw i32 %43, %44
  %46 = sub nsw i32 %45, 1
  store i32 %46, ptr %8, align 4
  %47 = load i32, ptr %8, align 4
  %48 = icmp slt i32 %47, 1
  br i1 %48, label %49, label %50

49:                                               ; preds = %42
  store i1 false, ptr %2, align 1
  br label %89

50:                                               ; preds = %42
  call void @scratch_buffer_clear()
  %51 = load i32, ptr %5, align 4
  %52 = add nsw i32 %51, 1
  store i32 %52, ptr %9, align 4
  br label %53

53:                                               ; preds = %85, %50
  %54 = load i32, ptr %9, align 4
  %55 = load i32, ptr %6, align 4
  %56 = icmp slt i32 %54, %55
  br i1 %56, label %57, label %88

57:                                               ; preds = %53
  %58 = load ptr, ptr %3, align 8
  %59 = load i32, ptr %9, align 4
  %60 = sext i32 %59 to i64
  %61 = getelementptr inbounds i8, ptr %58, i64 %60
  %62 = load i8, ptr %61, align 1
  store i8 %62, ptr %10, align 1
  %63 = load i8, ptr %10, align 1
  %64 = call zeroext i1 @char_is_letter(i8 noundef signext %63)
  br i1 %64, label %68, label %65

65:                                               ; preds = %57
  %66 = load i8, ptr %10, align 1
  %67 = call zeroext i1 @char_is_digit(i8 noundef signext %66)
  br i1 %67, label %68, label %82

68:                                               ; preds = %65, %57
  %69 = load i8, ptr %10, align 1
  %70 = call zeroext i1 @char_is_upper(i8 noundef signext %69)
  br i1 %70, label %71, label %76

71:                                               ; preds = %68
  %72 = load i8, ptr %10, align 1
  %73 = sext i8 %72 to i32
  %74 = add nsw i32 %73, 97
  %75 = sub nsw i32 %74, 65
  br label %79

76:                                               ; preds = %68
  %77 = load i8, ptr %10, align 1
  %78 = sext i8 %77 to i32
  br label %79

79:                                               ; preds = %76, %71
  %80 = phi i32 [ %75, %71 ], [ %78, %76 ]
  %81 = trunc i32 %80 to i8
  store i8 %81, ptr %10, align 1
  br label %83

82:                                               ; preds = %65
  store i8 95, ptr %10, align 1
  br label %83

83:                                               ; preds = %82, %79
  %84 = load i8, ptr %10, align 1
  call void @scratch_buffer_append_char(i8 noundef signext %84)
  br label %85

85:                                               ; preds = %83
  %86 = load i32, ptr %9, align 4
  %87 = add nsw i32 %86, 1
  store i32 %87, ptr %9, align 4
  br label %53, !llvm.loop !9

88:                                               ; preds = %53
  store i1 true, ptr %2, align 1
  br label %89

89:                                               ; preds = %88, %49
  %90 = load i1, ptr %2, align 1
  ret i1 %90
}

; Function Attrs: nounwind uwtable
define dso_local zeroext i1 @context_set_module_from_filename(ptr noundef %0) #0 {
  %2 = alloca i1, align 1
  %3 = alloca ptr, align 8
  %4 = alloca ptr, align 8
  %5 = alloca i32, align 4
  %6 = alloca ptr, align 8
  %7 = alloca ptr, align 8
  %8 = alloca %union.SourceSpan, align 8
  store ptr %0, ptr %3, align 8
  %9 = load ptr, ptr %3, align 8
  %10 = getelementptr inbounds %struct.ParseContext_, ptr %9, i32 0, i32 4
  %11 = load ptr, ptr %10, align 8
  %12 = getelementptr inbounds %struct.CompilationUnit_, ptr %11, i32 0, i32 1
  %13 = load ptr, ptr %12, align 8
  store ptr %13, ptr %4, align 8
  %14 = load ptr, ptr %4, align 8
  %15 = getelementptr inbounds %struct.File, ptr %14, i32 0, i32 5
  %16 = load ptr, ptr %15, align 8
  %17 = call zeroext i1 @filename_to_module_in_buffer(ptr noundef %16)
  br i1 %17, label %23, label %18

18:                                               ; preds = %1
  %19 = load ptr, ptr %3, align 8
  %20 = load ptr, ptr %4, align 8
  %21 = getelementptr inbounds %struct.File, ptr %20, i32 0, i32 5
  %22 = load ptr, ptr %21, align 8
  call void (ptr, ptr, ...) @sema_error(ptr noundef %19, ptr noundef @.str.1, ptr noundef %22)
  store i1 false, ptr %2, align 1
  br label %54

23:                                               ; preds = %1
  store i32 64, ptr %5, align 4
  %24 = load i32, ptr getelementptr inbounds (%struct.ScratchBuf, ptr @scratch_buffer, i32 0, i32 1), align 4
  %25 = load i32, ptr getelementptr inbounds (%struct.ScratchBuf, ptr @scratch_buffer, i32 0, i32 1), align 4
  %26 = call i32 @fnv1a(ptr noundef @scratch_buffer, i32 noundef %25)
  %27 = call ptr @symtab_add(ptr noundef @scratch_buffer, i32 noundef %24, i32 noundef %26, ptr noundef %5)
  store ptr %27, ptr %6, align 8
  %28 = load i32, ptr %5, align 4
  %29 = icmp ne i32 %28, 64
  br i1 %29, label %30, label %35

30:                                               ; preds = %23
  %31 = load ptr, ptr %3, align 8
  %32 = load ptr, ptr %4, align 8
  %33 = getelementptr inbounds %struct.File, ptr %32, i32 0, i32 5
  %34 = load ptr, ptr %33, align 8
  call void (ptr, ptr, ...) @sema_error(ptr noundef %31, ptr noundef @.str.2, ptr noundef %34)
  store i1 false, ptr %2, align 1
  br label %54

35:                                               ; preds = %23
  %36 = call ptr @calloc_arena(i64 noundef 24)
  store ptr %36, ptr %7, align 8
  %37 = load ptr, ptr %7, align 8
  %38 = getelementptr inbounds %struct.Path_, ptr %37, i32 0, i32 0
  %39 = getelementptr inbounds %struct.anon, ptr %8, i32 0, i32 0
  store i16 0, ptr %39, align 8
  %40 = getelementptr inbounds %struct.anon, ptr %8, i32 0, i32 1
  store i8 0, ptr %40, align 2
  %41 = getelementptr inbounds %struct.anon, ptr %8, i32 0, i32 2
  store i8 0, ptr %41, align 1
  %42 = getelementptr inbounds %struct.anon, ptr %8, i32 0, i32 3
  store i32 0, ptr %42, align 4
  call void @llvm.memcpy.p0.p0.i64(ptr align 8 %38, ptr align 8 %8, i64 8, i1 false)
  %43 = load ptr, ptr %6, align 8
  %44 = load ptr, ptr %7, align 8
  %45 = getelementptr inbounds %struct.Path_, ptr %44, i32 0, i32 1
  store ptr %43, ptr %45, align 8
  %46 = load i32, ptr getelementptr inbounds (%struct.ScratchBuf, ptr @scratch_buffer, i32 0, i32 1), align 4
  %47 = load ptr, ptr %7, align 8
  %48 = getelementptr inbounds %struct.Path_, ptr %47, i32 0, i32 2
  store i32 %46, ptr %48, align 8
  %49 = load ptr, ptr %3, align 8
  %50 = getelementptr inbounds %struct.ParseContext_, ptr %49, i32 0, i32 4
  %51 = load ptr, ptr %50, align 8
  %52 = load ptr, ptr %7, align 8
  %53 = call zeroext i1 @create_module_or_check_name(ptr noundef %51, ptr noundef %52, ptr noundef null)
  store i1 %53, ptr %2, align 1
  br label %54

54:                                               ; preds = %35, %30, %18
  %55 = load i1, ptr %2, align 1
  ret i1 %55
}