; Function Attrs: nounwind uwtable
define dso_local noundef zeroext i1 @context_set_module_from_filename(ptr noundef %0) local_unnamed_addr #0 {
  %2 = alloca i32, align 4
  %3 = getelementptr inbounds i8, ptr %0, i64 64
  %4 = load ptr, ptr %3, align 8
  %5 = getelementptr inbounds i8, ptr %4, i64 8
  %6 = load ptr, ptr %5, align 8
  %7 = getelementptr inbounds i8, ptr %6, i64 40
  %8 = load ptr, ptr %7, align 8
  %9 = tail call i64 @strlen(ptr noundef nonnull dereferenceable(1) %8) #7
  %10 = trunc i64 %9 to i32
  %11 = icmp sgt i32 %10, 0
  br i1 %11, label %.lr.ph.preheader.i, label %._crit_edge.i

.lr.ph.preheader.i:                               ; preds = %1
  %wide.trip.count.i = and i64 %9, 2147483647
  br label %.lr.ph.i

.lr.ph.i:                                         ; preds = %.lr.ph.i, %.lr.ph.preheader.i
  %indvars.iv.i = phi i64 [ 0, %.lr.ph.preheader.i ], [ %indvars.iv.next.i, %.lr.ph.i ]
  %.02833.i = phi i32 [ -1, %.lr.ph.preheader.i ], [ %.1.i, %.lr.ph.i ]
  %.02932.i = phi i32 [ 0, %.lr.ph.preheader.i ], [ %spec.select.i, %.lr.ph.i ]
  %12 = getelementptr inbounds i8, ptr %8, i64 %indvars.iv.i
  %13 = load i8, ptr %12, align 1
  %14 = icmp eq i8 %13, 47
  %15 = trunc nuw nsw i64 %indvars.iv.i to i32
  %spec.select.i = select i1 %14, i32 %15, i32 %.02932.i
  %16 = icmp eq i8 %13, 46
  %.1.i = select i1 %16, i32 %15, i32 %.02833.i
  %indvars.iv.next.i = add nuw nsw i64 %indvars.iv.i, 1
  %exitcond.not.i = icmp eq i64 %indvars.iv.next.i, %wide.trip.count.i
  br i1 %exitcond.not.i, label %._crit_edge.i, label %.lr.ph.i, !llvm.loop !7

._crit_edge.i:                                    ; preds = %.lr.ph.i, %1
  %.029.lcssa.i = phi i32 [ 0, %1 ], [ %spec.select.i, %.lr.ph.i ]
  %.028.lcssa.i = phi i32 [ -1, %1 ], [ %.1.i, %.lr.ph.i ]
  %17 = sub i32 %.029.lcssa.i, %.028.lcssa.i
  %18 = icmp slt i32 %17, -1
  br i1 %18, label %19, label %filename_to_module_in_buffer.exit.thread20

19:                                               ; preds = %._crit_edge.i
  tail call void @scratch_buffer_clear() #6
  %.02536.i = add nsw i32 %.029.lcssa.i, 1
  %20 = icmp slt i32 %.02536.i, %.028.lcssa.i
  br i1 %20, label %.lr.ph39.preheader.i, label %filename_to_module_in_buffer.exit.thread

.lr.ph39.preheader.i:                             ; preds = %19
  %21 = sext i32 %.02536.i to i64
  br label %.lr.ph39.i

.lr.ph39.i:                                       ; preds = %char_is_letter.exit.thread.i, %.lr.ph39.preheader.i
  %indvars.iv41.i = phi i64 [ %21, %.lr.ph39.preheader.i ], [ %indvars.iv.next42.i, %char_is_letter.exit.thread.i ]
  %22 = getelementptr inbounds i8, ptr %8, i64 %indvars.iv41.i
  %23 = load i8, ptr %22, align 1
  %switch.tableidx = add i8 %23, -65
  %24 = icmp ult i8 %switch.tableidx, 58
  br i1 %24, label %switch.hole_check, label %char_is_letter.exit.i

char_is_letter.exit.i:                            ; preds = %switch.hole_check, %.lr.ph39.i
  %25 = add i8 %23, -48
  %26 = icmp ult i8 %25, 10
  %spec.select = select i1 %26, i8 %23, i8 95
  br label %char_is_letter.exit.thread.i

switch.hole_check:                                ; preds = %.lr.ph39.i
  %switch.maskindex = zext nneg i8 %switch.tableidx to i64
  %switch.shifted = lshr i64 288230371923853311, %switch.maskindex
  %switch.lobit = trunc i64 %switch.shifted to i1
  br i1 %switch.lobit, label %switch.lookup, label %char_is_letter.exit.i

switch.lookup:                                    ; preds = %switch.hole_check
  %27 = zext nneg i8 %switch.tableidx to i64
  %switch.gep = getelementptr inbounds [58 x i8], ptr @switch.table.context_set_module_from_filename, i64 0, i64 %27
  %switch.load = load i8, ptr %switch.gep, align 1
  br label %char_is_letter.exit.thread.i

char_is_letter.exit.thread.i:                     ; preds = %char_is_letter.exit.i, %switch.lookup
  %.0.i = phi i8 [ %switch.load, %switch.lookup ], [ %spec.select, %char_is_letter.exit.i ]
  tail call void @scratch_buffer_append_char(i8 noundef signext %.0.i) #6
  %indvars.iv.next42.i = add nsw i64 %indvars.iv41.i, 1
  %lftr.wideiv.i = trunc i64 %indvars.iv.next42.i to i32
  %exitcond44.not.i = icmp eq i32 %.028.lcssa.i, %lftr.wideiv.i
  br i1 %exitcond44.not.i, label %filename_to_module_in_buffer.exit.thread, label %.lr.ph39.i, !llvm.loop !9

filename_to_module_in_buffer.exit.thread20:       ; preds = %._crit_edge.i
  tail call void (ptr, ptr, ...) @sema_error(ptr noundef %0, ptr noundef nonnull @.str.1, ptr noundef %8) #6
  br label %45

filename_to_module_in_buffer.exit.thread:         ; preds = %char_is_letter.exit.thread.i, %19
  store i32 64, ptr %2, align 4
  %28 = load i32, ptr getelementptr inbounds (%struct.ScratchBuf, ptr @scratch_buffer, i64 0, i32 1), align 4
  %.not.i = icmp eq i32 %28, 0
  br i1 %.not.i, label %fnv1a.exit, label %.lr.ph.preheader.i13

.lr.ph.preheader.i13:                             ; preds = %filename_to_module_in_buffer.exit.thread
  %wide.trip.count.i14 = zext i32 %28 to i64
  br label %.lr.ph.i15

.lr.ph.i15:                                       ; preds = %.lr.ph.i15, %.lr.ph.preheader.i13
  %indvars.iv.i16 = phi i64 [ 0, %.lr.ph.preheader.i13 ], [ %indvars.iv.next.i17, %.lr.ph.i15 ]
  %.061.i = phi i32 [ -2128831035, %.lr.ph.preheader.i13 ], [ %33, %.lr.ph.i15 ]
  %29 = getelementptr inbounds i8, ptr @scratch_buffer, i64 %indvars.iv.i16
  %30 = load i8, ptr %29, align 1
  %31 = sext i8 %30 to i32
  %32 = xor i32 %.061.i, %31
  %33 = mul i32 %32, 16777619
  %indvars.iv.next.i17 = add nuw nsw i64 %indvars.iv.i16, 1
  %exitcond.not.i18 = icmp eq i64 %indvars.iv.next.i17, %wide.trip.count.i14
  br i1 %exitcond.not.i18, label %fnv1a.exit, label %.lr.ph.i15, !llvm.loop !10

fnv1a.exit:                                       ; preds = %.lr.ph.i15, %filename_to_module_in_buffer.exit.thread
  %.06.lcssa.i = phi i32 [ -2128831035, %filename_to_module_in_buffer.exit.thread ], [ %33, %.lr.ph.i15 ]
  %34 = call ptr @symtab_add(ptr noundef nonnull @scratch_buffer, i32 noundef %28, i32 noundef %.06.lcssa.i, ptr noundef nonnull %2) #6
  %35 = load i32, ptr %2, align 4
  %.not = icmp eq i32 %35, 64
  br i1 %.not, label %38, label %36

36:                                               ; preds = %fnv1a.exit
  %37 = load ptr, ptr %7, align 8
  call void (ptr, ptr, ...) @sema_error(ptr noundef %0, ptr noundef nonnull @.str.2, ptr noundef %37) #6
  br label %45

38:                                               ; preds = %fnv1a.exit
  %39 = call ptr @calloc_arena(i64 noundef 24) #6
  %40 = getelementptr inbounds i8, ptr %39, i64 8
  store i64 0, ptr %39, align 8
  store ptr %34, ptr %40, align 8
  %41 = load i32, ptr getelementptr inbounds (%struct.ScratchBuf, ptr @scratch_buffer, i64 0, i32 1), align 4
  %42 = getelementptr inbounds i8, ptr %39, i64 16
  store i32 %41, ptr %42, align 8
  %43 = load ptr, ptr %3, align 8
  %44 = call fastcc zeroext i1 @create_module_or_check_name(ptr noundef %43, ptr noundef nonnull %39, ptr noundef null)
  br label %45

45:                                               ; preds = %38, %36, %filename_to_module_in_buffer.exit.thread20
  %.0 = phi i1 [ false, %36 ], [ %44, %38 ], [ false, %filename_to_module_in_buffer.exit.thread20 ]
  ret i1 %.0
}